; ModuleID = '46/3241.c'
source_filename = "46/3241.c"
target datalayout = "e-m:e-p270:32:32-p271:32:32-p272:64:64-i64:64-f80:128-n8:16:32:64-S128"
target triple = "x86_64-pc-linux-gnu"

@.str = private unnamed_addr constant [5 x i8] c"%d%d\00", align 1
@.str.1 = private unnamed_addr constant [3 x i8] c"%d\00", align 1
@.str.2 = private unnamed_addr constant [4 x i8] c"%d\0A\00", align 1

; Function Attrs: noinline nounwind uwtable
define dso_local i32 @main() #0 {
  %1 = alloca i32, align 4
  %2 = alloca [100 x [100 x i32]], align 16
  %3 = alloca i32, align 4
  %4 = alloca i32, align 4
  %5 = alloca i32, align 4
  %6 = alloca i32, align 4
  %7 = alloca i32, align 4
  %8 = alloca i32, align 4
  %9 = alloca i32, align 4
  %10 = alloca i32, align 4
  %11 = alloca i32, align 4
  %12 = alloca i32, align 4
  store i32 0, i32* %1, align 4
  store i32 0, i32* %12, align 4
  %13 = call i32 (i8*, ...) @__isoc99_scanf(i8* getelementptr inbounds ([5 x i8], [5 x i8]* @.str, i64 0, i64 0), i32* %3, i32* %4)
  store i32 0, i32* %5, align 4
  br label %14

14:                                               ; preds = %35, %0
  %15 = load i32, i32* %5, align 4
  %16 = load i32, i32* %3, align 4
  %17 = icmp slt i32 %15, %16
  br i1 %17, label %18, label %38

18:                                               ; preds = %14
  store i32 0, i32* %6, align 4
  br label %19

19:                                               ; preds = %31, %18
  %20 = load i32, i32* %6, align 4
  %21 = load i32, i32* %4, align 4
  %22 = icmp slt i32 %20, %21
  br i1 %22, label %23, label %34

23:                                               ; preds = %19
  %24 = load i32, i32* %5, align 4
  %25 = sext i32 %24 to i64
  %26 = getelementptr inbounds [100 x [100 x i32]], [100 x [100 x i32]]* %2, i64 0, i64 %25
  %27 = load i32, i32* %6, align 4
  %28 = sext i32 %27 to i64
  %29 = getelementptr inbounds [100 x i32], [100 x i32]* %26, i64 0, i64 %28
  %30 = call i32 (i8*, ...) @__isoc99_scanf(i8* getelementptr inbounds ([3 x i8], [3 x i8]* @.str.1, i64 0, i64 0), i32* %29)
  br label %31

31:                                               ; preds = %23
  %32 = load i32, i32* %6, align 4
  %33 = add nsw i32 %32, 1
  store i32 %33, i32* %6, align 4
  br label %19

34:                                               ; preds = %19
  br label %35

35:                                               ; preds = %34
  %36 = load i32, i32* %5, align 4
  %37 = add nsw i32 %36, 1
  store i32 %37, i32* %5, align 4
  br label %14

38:                                               ; preds = %14
  %39 = load i32, i32* %3, align 4
  %40 = sub nsw i32 %39, 1
  store i32 %40, i32* %5, align 4
  %41 = load i32, i32* %4, align 4
  %42 = sub nsw i32 %41, 1
  store i32 %42, i32* %6, align 4
  store i32 0, i32* %8, align 4
  br label %43

43:                                               ; preds = %183, %38
  %44 = load i32, i32* %8, align 4
  %45 = icmp slt i32 %44, 100
  br i1 %45, label %46, label %186

46:                                               ; preds = %43
  %47 = load i32, i32* %8, align 4
  store i32 %47, i32* %10, align 4
  %48 = load i32, i32* %8, align 4
  store i32 %48, i32* %11, align 4
  %49 = load i32, i32* %8, align 4
  store i32 %49, i32* %7, align 4
  %50 = load i32, i32* %8, align 4
  store i32 %50, i32* %9, align 4
  %51 = load i32, i32* %8, align 4
  store i32 %51, i32* %10, align 4
  br label %52

52:                                               ; preds = %69, %46
  %53 = load i32, i32* %10, align 4
  %54 = load i32, i32* %6, align 4
  %55 = load i32, i32* %8, align 4
  %56 = sub nsw i32 %54, %55
  %57 = icmp sle i32 %53, %56
  br i1 %57, label %58, label %72

58:                                               ; preds = %52
  %59 = load i32, i32* %8, align 4
  %60 = sext i32 %59 to i64
  %61 = getelementptr inbounds [100 x [100 x i32]], [100 x [100 x i32]]* %2, i64 0, i64 %60
  %62 = load i32, i32* %10, align 4
  %63 = sext i32 %62 to i64
  %64 = getelementptr inbounds [100 x i32], [100 x i32]* %61, i64 0, i64 %63
  %65 = load i32, i32* %64, align 4
  %66 = call i32 (i8*, ...) @printf(i8* getelementptr inbounds ([4 x i8], [4 x i8]* @.str.2, i64 0, i64 0), i32 %65)
  %67 = load i32, i32* %12, align 4
  %68 = add nsw i32 %67, 1
  store i32 %68, i32* %12, align 4
  br label %69

69:                                               ; preds = %58
  %70 = load i32, i32* %10, align 4
  %71 = add nsw i32 %70, 1
  store i32 %71, i32* %10, align 4
  br label %52

72:                                               ; preds = %52
  %73 = load i32, i32* %12, align 4
  %74 = load i32, i32* %5, align 4
  %75 = add nsw i32 %74, 1
  %76 = load i32, i32* %6, align 4
  %77 = add nsw i32 %76, 1
  %78 = mul nsw i32 %75, %77
  %79 = icmp eq i32 %73, %78
  br i1 %79, label %80, label %81

80:                                               ; preds = %72
  br label %186

81:                                               ; preds = %72
  %82 = load i32, i32* %8, align 4
  %83 = add nsw i32 %82, 1
  store i32 %83, i32* %11, align 4
  br label %84

84:                                               ; preds = %103, %81
  %85 = load i32, i32* %11, align 4
  %86 = load i32, i32* %5, align 4
  %87 = load i32, i32* %8, align 4
  %88 = sub nsw i32 %86, %87
  %89 = icmp sle i32 %85, %88
  br i1 %89, label %90, label %106

90:                                               ; preds = %84
  %91 = load i32, i32* %11, align 4
  %92 = sext i32 %91 to i64
  %93 = getelementptr inbounds [100 x [100 x i32]], [100 x [100 x i32]]* %2, i64 0, i64 %92
  %94 = load i32, i32* %6, align 4
  %95 = load i32, i32* %8, align 4
  %96 = sub nsw i32 %94, %95
  %97 = sext i32 %96 to i64
  %98 = getelementptr inbounds [100 x i32], [100 x i32]* %93, i64 0, i64 %97
  %99 = load i32, i32* %98, align 4
  %100 = call i32 (i8*, ...) @printf(i8* getelementptr inbounds ([4 x i8], [4 x i8]* @.str.2, i64 0, i64 0), i32 %99)
  %101 = load i32, i32* %12, align 4
  %102 = add nsw i32 %101, 1
  store i32 %102, i32* %12, align 4
  br label %103

103:                                              ; preds = %90
  %104 = load i32, i32* %11, align 4
  %105 = add nsw i32 %104, 1
  store i32 %105, i32* %11, align 4
  br label %84

106:                                              ; preds = %84
  %107 = load i32, i32* %12, align 4
  %108 = load i32, i32* %5, align 4
  %109 = add nsw i32 %108, 1
  %110 = load i32, i32* %6, align 4
  %111 = add nsw i32 %110, 1
  %112 = mul nsw i32 %109, %111
  %113 = icmp eq i32 %107, %112
  br i1 %113, label %114, label %115

114:                                              ; preds = %106
  br label %186

115:                                              ; preds = %106
  %116 = load i32, i32* %6, align 4
  %117 = load i32, i32* %8, align 4
  %118 = sub nsw i32 %116, %117
  %119 = sub nsw i32 %118, 1
  store i32 %119, i32* %7, align 4
  br label %120

120:                                              ; preds = %137, %115
  %121 = load i32, i32* %7, align 4
  %122 = load i32, i32* %8, align 4
  %123 = icmp sge i32 %121, %122
  br i1 %123, label %124, label %140

124:                                              ; preds = %120
  %125 = load i32, i32* %5, align 4
  %126 = load i32, i32* %8, align 4
  %127 = sub nsw i32 %125, %126
  %128 = sext i32 %127 to i64
  %129 = getelementptr inbounds [100 x [100 x i32]], [100 x [100 x i32]]* %2, i64 0, i64 %128
  %130 = load i32, i32* %7, align 4
  %131 = sext i32 %130 to i64
  %132 = getelementptr inbounds [100 x i32], [100 x i32]* %129, i64 0, i64 %131
  %133 = load i32, i32* %132, align 4
  %134 = call i32 (i8*, ...) @printf(i8* getelementptr inbounds ([4 x i8], [4 x i8]* @.str.2, i64 0, i64 0), i32 %133)
  %135 = load i32, i32* %12, align 4
  %136 = add nsw i32 %135, 1
  store i32 %136, i32* %12, align 4
  br label %137

137:                                              ; preds = %124
  %138 = load i32, i32* %7, align 4
  %139 = add nsw i32 %138, -1
  store i32 %139, i32* %7, align 4
  br label %120

140:                                              ; preds = %120
  %141 = load i32, i32* %12, align 4
  %142 = load i32, i32* %5, align 4
  %143 = add nsw i32 %142, 1
  %144 = load i32, i32* %6, align 4
  %145 = add nsw i32 %144, 1
  %146 = mul nsw i32 %143, %145
  %147 = icmp eq i32 %141, %146
  br i1 %147, label %148, label %149

148:                                              ; preds = %140
  br label %186

149:                                              ; preds = %140
  %150 = load i32, i32* %5, align 4
  %151 = load i32, i32* %8, align 4
  %152 = sub nsw i32 %150, %151
  %153 = sub nsw i32 %152, 1
  store i32 %153, i32* %9, align 4
  br label %154

154:                                              ; preds = %170, %149
  %155 = load i32, i32* %9, align 4
  %156 = load i32, i32* %8, align 4
  %157 = add nsw i32 %156, 1
  %158 = icmp sge i32 %155, %157
  br i1 %158, label %159, label %173

159:                                              ; preds = %154
  %160 = load i32, i32* %9, align 4
  %161 = sext i32 %160 to i64
  %162 = getelementptr inbounds [100 x [100 x i32]], [100 x [100 x i32]]* %2, i64 0, i64 %161
  %163 = load i32, i32* %8, align 4
  %164 = sext i32 %163 to i64
  %165 = getelementptr inbounds [100 x i32], [100 x i32]* %162, i64 0, i64 %164
  %166 = load i32, i32* %165, align 4
  %167 = call i32 (i8*, ...) @printf(i8* getelementptr inbounds ([4 x i8], [4 x i8]* @.str.2, i64 0, i64 0), i32 %166)
  %168 = load i32, i32* %12, align 4
  %169 = add nsw i32 %168, 1
  store i32 %169, i32* %12, align 4
  br label %170

170:                                              ; preds = %159
  %171 = load i32, i32* %9, align 4
  %172 = add nsw i32 %171, -1
  store i32 %172, i32* %9, align 4
  br label %154

173:                                              ; preds = %154
  %174 = load i32, i32* %12, align 4
  %175 = load i32, i32* %5, align 4
  %176 = add nsw i32 %175, 1
  %177 = load i32, i32* %6, align 4
  %178 = add nsw i32 %177, 1
  %179 = mul nsw i32 %176, %178
  %180 = icmp eq i32 %174, %179
  br i1 %180, label %181, label %182

181:                                              ; preds = %173
  br label %186

182:                                              ; preds = %173
  br label %183

183:                                              ; preds = %182
  %184 = load i32, i32* %8, align 4
  %185 = add nsw i32 %184, 1
  store i32 %185, i32* %8, align 4
  br label %43

186:                                              ; preds = %181, %148, %114, %80, %43
  ret i32 0
}

declare dso_local i32 @__isoc99_scanf(i8*, ...) #1

declare dso_local i32 @printf(i8*, ...) #1


!llvm.module.flags = !{!0}
!llvm.ident = !{!1}

!0 = !{i32 1, !"wchar_size", i32 4}
!1 = !{!"clang version 10.0.0-4ubuntu1 "}
